target datalayout = "e-m:e-p270:32:32-p271:32:32-p272:64:64-i64:64-i128:128-f80:128-n8:16:32:64-S128"
target triple = "x86_64-pc-linux-gnu"

@av1_cospi_arr_data = external constant [7 x [64 x i32]], align 16

; Function Attrs: nounwind uwtable
define internal i64 @clamp64(i64 noundef %0, i64 noundef %1, i64 noundef %2) #0 {
  %4 = alloca i64, align 8
  %5 = alloca i64, align 8
  %6 = alloca i64, align 8
  store i64 %0, ptr %4, align 8
  store i64 %1, ptr %5, align 8
  store i64 %2, ptr %6, align 8
  %7 = load i64, ptr %4, align 8
  %8 = load i64, ptr %5, align 8
  %9 = icmp slt i64 %7, %8
  br i1 %9, label %10, label %12

10:                                               ; preds = %3
  %11 = load i64, ptr %5, align 8
  br label %22

12:                                               ; preds = %3
  %13 = load i64, ptr %4, align 8
  %14 = load i64, ptr %6, align 8
  %15 = icmp sgt i64 %13, %14
  br i1 %15, label %16, label %18

16:                                               ; preds = %12
  %17 = load i64, ptr %6, align 8
  br label %20

18:                                               ; preds = %12
  %19 = load i64, ptr %4, align 8
  br label %20

20:                                               ; preds = %18, %16
  %21 = phi i64 [ %17, %16 ], [ %19, %18 ]
  br label %22

22:                                               ; preds = %20, %10
  %23 = phi i64 [ %11, %10 ], [ %21, %20 ]
  ret i64 %23
}

; Function Attrs: nounwind uwtable
define internal i32 @clamp_value(i32 noundef %0, i8 noundef signext %1) #0 {
  %3 = alloca i32, align 4
  %4 = alloca i32, align 4
  %5 = alloca i8, align 1
  %6 = alloca i64, align 8
  %7 = alloca i64, align 8
  store i32 %0, ptr %4, align 4
  store i8 %1, ptr %5, align 1
  %8 = load i8, ptr %5, align 1
  %9 = sext i8 %8 to i32
  %10 = icmp sle i32 %9, 0
  br i1 %10, label %11, label %13

11:                                               ; preds = %2
  %12 = load i32, ptr %4, align 4
  store i32 %12, ptr %3, align 4
  br label %32

13:                                               ; preds = %2
  %14 = load i8, ptr %5, align 1
  %15 = sext i8 %14 to i32
  %16 = sub nsw i32 %15, 1
  %17 = zext i32 %16 to i64
  %18 = shl i64 1, %17
  %19 = sub nsw i64 %18, 1
  store i64 %19, ptr %6, align 8
  %20 = load i8, ptr %5, align 1
  %21 = sext i8 %20 to i32
  %22 = sub nsw i32 %21, 1
  %23 = zext i32 %22 to i64
  %24 = shl i64 1, %23
  %25 = sub nsw i64 0, %24
  store i64 %25, ptr %7, align 8
  %26 = load i32, ptr %4, align 4
  %27 = sext i32 %26 to i64
  %28 = load i64, ptr %7, align 8
  %29 = load i64, ptr %6, align 8
  %30 = call i64 @clamp64(i64 noundef %27, i64 noundef %28, i64 noundef %29)
  %31 = trunc i64 %30 to i32
  store i32 %31, ptr %3, align 4
  br label %32

32:                                               ; preds = %13, %11
  %33 = load i32, ptr %3, align 4
  ret i32 %33
}

; Function Attrs: nounwind uwtable
define internal i32 @half_btf(i32 noundef %0, i32 noundef %1, i32 noundef %2, i32 noundef %3, i32 noundef %4) #0 {
  %6 = alloca i32, align 4
  %7 = alloca i32, align 4
  %8 = alloca i32, align 4
  %9 = alloca i32, align 4
  %10 = alloca i32, align 4
  %11 = alloca i64, align 8
  %12 = alloca i64, align 8
  store i32 %0, ptr %6, align 4
  store i32 %1, ptr %7, align 4
  store i32 %2, ptr %8, align 4
  store i32 %3, ptr %9, align 4
  store i32 %4, ptr %10, align 4
  %13 = load i32, ptr %6, align 4
  %14 = load i32, ptr %7, align 4
  %15 = mul nsw i32 %13, %14
  %16 = sext i32 %15 to i64
  %17 = load i32, ptr %8, align 4
  %18 = load i32, ptr %9, align 4
  %19 = mul nsw i32 %17, %18
  %20 = sext i32 %19 to i64
  %21 = add nsw i64 %16, %20
  store i64 %21, ptr %11, align 8
  %22 = load i64, ptr %11, align 8
  %23 = load i32, ptr %10, align 4
  %24 = sub nsw i32 %23, 1
  %25 = zext i32 %24 to i64
  %26 = shl i64 1, %25
  %27 = add nsw i64 %22, %26
  store i64 %27, ptr %12, align 8
  %28 = load i64, ptr %12, align 8
  %29 = load i32, ptr %10, align 4
  %30 = zext i32 %29 to i64
  %31 = ashr i64 %28, %30
  %32 = trunc i64 %31 to i32
  ret i32 %32
}

; Function Attrs: nounwind uwtable
define internal ptr @cospi_arr(i32 noundef %0) #0 {
  %2 = alloca i32, align 4
  store i32 %0, ptr %2, align 4
  %3 = load i32, ptr %2, align 4
  %4 = sub nsw i32 %3, 10
  %5 = sext i32 %4 to i64
  %6 = getelementptr inbounds [7 x [64 x i32]], ptr @av1_cospi_arr_data, i64 0, i64 %5
  %7 = getelementptr inbounds [64 x i32], ptr %6, i64 0, i64 0
  ret ptr %7
}

; Function Attrs: nounwind uwtable
define hidden void @av1_idct4(ptr noundef %0, ptr noundef %1, i8 noundef signext %2, ptr noundef %3) #0 {
  %5 = alloca ptr, align 8
  %6 = alloca ptr, align 8
  %7 = alloca i8, align 1
  %8 = alloca ptr, align 8
  %9 = alloca i32, align 4
  %10 = alloca ptr, align 8
  %11 = alloca i32, align 4
  %12 = alloca ptr, align 8
  %13 = alloca ptr, align 8
  %14 = alloca [4 x i32], align 16
  store ptr %0, ptr %5, align 8
  store ptr %1, ptr %6, align 8
  store i8 %2, ptr %7, align 1
  store ptr %3, ptr %8, align 8
  store i32 4, ptr %9, align 4
  %15 = load i8, ptr %7, align 1
  %16 = sext i8 %15 to i32
  %17 = call ptr @cospi_arr(i32 noundef %16)
  store ptr %17, ptr %10, align 8
  store i32 0, ptr %11, align 4
  %18 = load i32, ptr %11, align 4
  %19 = add nsw i32 %18, 1
  store i32 %19, ptr %11, align 4
  %20 = load ptr, ptr %6, align 8
  store ptr %20, ptr %13, align 8
  %21 = load ptr, ptr %5, align 8
  %22 = getelementptr inbounds i32, ptr %21, i64 0
  %23 = load i32, ptr %22, align 4
  %24 = load ptr, ptr %13, align 8
  %25 = getelementptr inbounds i32, ptr %24, i64 0
  store i32 %23, ptr %25, align 4
  %26 = load ptr, ptr %5, align 8
  %27 = getelementptr inbounds i32, ptr %26, i64 2
  %28 = load i32, ptr %27, align 4
  %29 = load ptr, ptr %13, align 8
  %30 = getelementptr inbounds i32, ptr %29, i64 1
  store i32 %28, ptr %30, align 4
  %31 = load ptr, ptr %5, align 8
  %32 = getelementptr inbounds i32, ptr %31, i64 1
  %33 = load i32, ptr %32, align 4
  %34 = load ptr, ptr %13, align 8
  %35 = getelementptr inbounds i32, ptr %34, i64 2
  store i32 %33, ptr %35, align 4
  %36 = load ptr, ptr %5, align 8
  %37 = getelementptr inbounds i32, ptr %36, i64 3
  %38 = load i32, ptr %37, align 4
  %39 = load ptr, ptr %13, align 8
  %40 = getelementptr inbounds i32, ptr %39, i64 3
  store i32 %38, ptr %40, align 4
  %41 = load i32, ptr %11, align 4
  %42 = load ptr, ptr %5, align 8
  %43 = load ptr, ptr %13, align 8
  %44 = load ptr, ptr %8, align 8
  %45 = load i32, ptr %11, align 4
  %46 = sext i32 %45 to i64
  %47 = getelementptr inbounds i8, ptr %44, i64 %46
  %48 = load i8, ptr %47, align 1
  call void @av1_range_check_buf(i32 noundef %41, ptr noundef %42, ptr noundef %43, i32 noundef 4, i8 noundef signext %48)
  %49 = load i32, ptr %11, align 4
  %50 = add nsw i32 %49, 1
  store i32 %50, ptr %11, align 4
  %51 = load ptr, ptr %6, align 8
  store ptr %51, ptr %12, align 8
  %52 = getelementptr inbounds [4 x i32], ptr %14, i64 0, i64 0
  store ptr %52, ptr %13, align 8
  %53 = load ptr, ptr %10, align 8
  %54 = getelementptr inbounds i32, ptr %53, i64 32
  %55 = load i32, ptr %54, align 4
  %56 = load ptr, ptr %12, align 8
  %57 = getelementptr inbounds i32, ptr %56, i64 0
  %58 = load i32, ptr %57, align 4
  %59 = load ptr, ptr %10, align 8
  %60 = getelementptr inbounds i32, ptr %59, i64 32
  %61 = load i32, ptr %60, align 4
  %62 = load ptr, ptr %12, align 8
  %63 = getelementptr inbounds i32, ptr %62, i64 1
  %64 = load i32, ptr %63, align 4
  %65 = load i8, ptr %7, align 1
  %66 = sext i8 %65 to i32
  %67 = call i32 @half_btf(i32 noundef %55, i32 noundef %58, i32 noundef %61, i32 noundef %64, i32 noundef %66)
  %68 = load ptr, ptr %13, align 8
  %69 = getelementptr inbounds i32, ptr %68, i64 0
  store i32 %67, ptr %69, align 4
  %70 = load ptr, ptr %10, align 8
  %71 = getelementptr inbounds i32, ptr %70, i64 32
  %72 = load i32, ptr %71, align 4
  %73 = load ptr, ptr %12, align 8
  %74 = getelementptr inbounds i32, ptr %73, i64 0
  %75 = load i32, ptr %74, align 4
  %76 = load ptr, ptr %10, align 8
  %77 = getelementptr inbounds i32, ptr %76, i64 32
  %78 = load i32, ptr %77, align 4
  %79 = sub nsw i32 0, %78
  %80 = load ptr, ptr %12, align 8
  %81 = getelementptr inbounds i32, ptr %80, i64 1
  %82 = load i32, ptr %81, align 4
  %83 = load i8, ptr %7, align 1
  %84 = sext i8 %83 to i32
  %85 = call i32 @half_btf(i32 noundef %72, i32 noundef %75, i32 noundef %79, i32 noundef %82, i32 noundef %84)
  %86 = load ptr, ptr %13, align 8
  %87 = getelementptr inbounds i32, ptr %86, i64 1
  store i32 %85, ptr %87, align 4
  %88 = load ptr, ptr %10, align 8
  %89 = getelementptr inbounds i32, ptr %88, i64 48
  %90 = load i32, ptr %89, align 4
  %91 = load ptr, ptr %12, align 8
  %92 = getelementptr inbounds i32, ptr %91, i64 2
  %93 = load i32, ptr %92, align 4
  %94 = load ptr, ptr %10, align 8
  %95 = getelementptr inbounds i32, ptr %94, i64 16
  %96 = load i32, ptr %95, align 4
  %97 = sub nsw i32 0, %96
  %98 = load ptr, ptr %12, align 8
  %99 = getelementptr inbounds i32, ptr %98, i64 3
  %100 = load i32, ptr %99, align 4
  %101 = load i8, ptr %7, align 1
  %102 = sext i8 %101 to i32
  %103 = call i32 @half_btf(i32 noundef %90, i32 noundef %93, i32 noundef %97, i32 noundef %100, i32 noundef %102)
  %104 = load ptr, ptr %13, align 8
  %105 = getelementptr inbounds i32, ptr %104, i64 2
  store i32 %103, ptr %105, align 4
  %106 = load ptr, ptr %10, align 8
  %107 = getelementptr inbounds i32, ptr %106, i64 16
  %108 = load i32, ptr %107, align 4
  %109 = load ptr, ptr %12, align 8
  %110 = getelementptr inbounds i32, ptr %109, i64 2
  %111 = load i32, ptr %110, align 4
  %112 = load ptr, ptr %10, align 8
  %113 = getelementptr inbounds i32, ptr %112, i64 48
  %114 = load i32, ptr %113, align 4
  %115 = load ptr, ptr %12, align 8
  %116 = getelementptr inbounds i32, ptr %115, i64 3
  %117 = load i32, ptr %116, align 4
  %118 = load i8, ptr %7, align 1
  %119 = sext i8 %118 to i32
  %120 = call i32 @half_btf(i32 noundef %108, i32 noundef %111, i32 noundef %114, i32 noundef %117, i32 noundef %119)
  %121 = load ptr, ptr %13, align 8
  %122 = getelementptr inbounds i32, ptr %121, i64 3
  store i32 %120, ptr %122, align 4
  %123 = load i32, ptr %11, align 4
  %124 = load ptr, ptr %5, align 8
  %125 = load ptr, ptr %13, align 8
  %126 = load ptr, ptr %8, align 8
  %127 = load i32, ptr %11, align 4
  %128 = sext i32 %127 to i64
  %129 = getelementptr inbounds i8, ptr %126, i64 %128
  %130 = load i8, ptr %129, align 1
  call void @av1_range_check_buf(i32 noundef %123, ptr noundef %124, ptr noundef %125, i32 noundef 4, i8 noundef signext %130)
  %131 = load i32, ptr %11, align 4
  %132 = add nsw i32 %131, 1
  store i32 %132, ptr %11, align 4
  %133 = getelementptr inbounds [4 x i32], ptr %14, i64 0, i64 0
  store ptr %133, ptr %12, align 8
  %134 = load ptr, ptr %6, align 8
  store ptr %134, ptr %13, align 8
  %135 = load ptr, ptr %12, align 8
  %136 = getelementptr inbounds i32, ptr %135, i64 0
  %137 = load i32, ptr %136, align 4
  %138 = load ptr, ptr %12, align 8
  %139 = getelementptr inbounds i32, ptr %138, i64 3
  %140 = load i32, ptr %139, align 4
  %141 = add nsw i32 %137, %140
  %142 = load ptr, ptr %8, align 8
  %143 = load i32, ptr %11, align 4
  %144 = sext i32 %143 to i64
  %145 = getelementptr inbounds i8, ptr %142, i64 %144
  %146 = load i8, ptr %145, align 1
  %147 = call i32 @clamp_value(i32 noundef %141, i8 noundef signext %146)
  %148 = load ptr, ptr %13, align 8
  %149 = getelementptr inbounds i32, ptr %148, i64 0
  store i32 %147, ptr %149, align 4
  %150 = load ptr, ptr %12, align 8
  %151 = getelementptr inbounds i32, ptr %150, i64 1
  %152 = load i32, ptr %151, align 4
  %153 = load ptr, ptr %12, align 8
  %154 = getelementptr inbounds i32, ptr %153, i64 2
  %155 = load i32, ptr %154, align 4
  %156 = add nsw i32 %152, %155
  %157 = load ptr, ptr %8, align 8
  %158 = load i32, ptr %11, align 4
  %159 = sext i32 %158 to i64
  %160 = getelementptr inbounds i8, ptr %157, i64 %159
  %161 = load i8, ptr %160, align 1
  %162 = call i32 @clamp_value(i32 noundef %156, i8 noundef signext %161)
  %163 = load ptr, ptr %13, align 8
  %164 = getelementptr inbounds i32, ptr %163, i64 1
  store i32 %162, ptr %164, align 4
  %165 = load ptr, ptr %12, align 8
  %166 = getelementptr inbounds i32, ptr %165, i64 1
  %167 = load i32, ptr %166, align 4
  %168 = load ptr, ptr %12, align 8
  %169 = getelementptr inbounds i32, ptr %168, i64 2
  %170 = load i32, ptr %169, align 4
  %171 = sub nsw i32 %167, %170
  %172 = load ptr, ptr %8, align 8
  %173 = load i32, ptr %11, align 4
  %174 = sext i32 %173 to i64
  %175 = getelementptr inbounds i8, ptr %172, i64 %174
  %176 = load i8, ptr %175, align 1
  %177 = call i32 @clamp_value(i32 noundef %171, i8 noundef signext %176)
  %178 = load ptr, ptr %13, align 8
  %179 = getelementptr inbounds i32, ptr %178, i64 2
  store i32 %177, ptr %179, align 4
  %180 = load ptr, ptr %12, align 8
  %181 = getelementptr inbounds i32, ptr %180, i64 0
  %182 = load i32, ptr %181, align 4
  %183 = load ptr, ptr %12, align 8
  %184 = getelementptr inbounds i32, ptr %183, i64 3
  %185 = load i32, ptr %184, align 4
  %186 = sub nsw i32 %182, %185
  %187 = load ptr, ptr %8, align 8
  %188 = load i32, ptr %11, align 4
  %189 = sext i32 %188 to i64
  %190 = getelementptr inbounds i8, ptr %187, i64 %189
  %191 = load i8, ptr %190, align 1
  %192 = call i32 @clamp_value(i32 noundef %186, i8 noundef signext %191)
  %193 = load ptr, ptr %13, align 8
  %194 = getelementptr inbounds i32, ptr %193, i64 3
  store i32 %192, ptr %194, align 4
  ret void
}