; Function Attrs: nounwind uwtable
define hidden void @av1_idct4(ptr noundef %0, ptr noundef %1, i8 noundef signext %2, ptr nocapture noundef readonly %3) local_unnamed_addr #0 {
  %5 = alloca [4 x i32], align 16
  %6 = sext i8 %2 to i32
  %7 = add nsw i32 %6, -10
  %8 = sext i32 %7 to i64
  %9 = getelementptr inbounds [7 x [64 x i32]], ptr @av1_cospi_arr_data, i64 0, i64 %8
  %10 = load i32, ptr %0, align 4
  store i32 %10, ptr %1, align 4
  %11 = getelementptr inbounds i8, ptr %0, i64 8
  %12 = load i32, ptr %11, align 4
  %13 = getelementptr inbounds i8, ptr %1, i64 4
  store i32 %12, ptr %13, align 4
  %14 = getelementptr inbounds i8, ptr %0, i64 4
  %15 = load i32, ptr %14, align 4
  %16 = getelementptr inbounds i8, ptr %1, i64 8
  store i32 %15, ptr %16, align 4
  %17 = getelementptr inbounds i8, ptr %0, i64 12
  %18 = load i32, ptr %17, align 4
  %19 = getelementptr inbounds i8, ptr %1, i64 12
  store i32 %18, ptr %19, align 4
  %20 = getelementptr inbounds i8, ptr %3, i64 1
  %21 = load i8, ptr %20, align 1
  tail call void @av1_range_check_buf(i32 noundef 1, ptr noundef nonnull %0, ptr noundef nonnull %1, i32 noundef 4, i8 noundef signext %21) #5
  %22 = getelementptr inbounds i8, ptr %9, i64 128
  %23 = load i32, ptr %22, align 16
  %24 = load i32, ptr %1, align 4
  %25 = load i32, ptr %13, align 4
  %26 = mul nsw i32 %24, %23
  %27 = sext i32 %26 to i64
  %28 = mul i32 %25, %23
  %29 = sext i32 %28 to i64
  %30 = add nsw i32 %6, -1
  %31 = zext nneg i32 %30 to i64
  %32 = shl nuw i64 1, %31
  %33 = add i64 %32, %27
  %34 = add i64 %33, %29
  %35 = zext nneg i32 %6 to i64
  %36 = ashr i64 %34, %35
  %37 = trunc i64 %36 to i32
  store i32 %37, ptr %5, align 16
  %38 = sub i32 0, %28
  %39 = sext i32 %38 to i64
  %40 = add i64 %33, %39
  %41 = ashr i64 %40, %35
  %42 = trunc i64 %41 to i32
  %43 = getelementptr inbounds i8, ptr %5, i64 4
  store i32 %42, ptr %43, align 4
  %44 = getelementptr inbounds i8, ptr %9, i64 192
  %45 = load i32, ptr %44, align 16
  %46 = load i32, ptr %16, align 4
  %47 = getelementptr inbounds i8, ptr %9, i64 64
  %48 = load i32, ptr %47, align 16
  %49 = load i32, ptr %19, align 4
  %50 = mul nsw i32 %46, %45
  %51 = sext i32 %50 to i64
  %52 = mul i32 %48, %49
  %53 = sub i32 0, %52
  %54 = sext i32 %53 to i64
  %55 = add i64 %32, %51
  %56 = add i64 %55, %54
  %57 = ashr i64 %56, %35
  %58 = trunc i64 %57 to i32
  %59 = getelementptr inbounds i8, ptr %5, i64 8
  store i32 %58, ptr %59, align 8
  %60 = mul nsw i32 %48, %46
  %61 = sext i32 %60 to i64
  %62 = mul nsw i32 %49, %45
  %63 = sext i32 %62 to i64
  %64 = add i64 %32, %61
  %65 = add i64 %64, %63
  %66 = ashr i64 %65, %35
  %67 = trunc i64 %66 to i32
  %68 = getelementptr inbounds i8, ptr %5, i64 12
  store i32 %67, ptr %68, align 4
  %69 = getelementptr inbounds i8, ptr %3, i64 2
  %70 = load i8, ptr %69, align 1
  call void @av1_range_check_buf(i32 noundef 2, ptr noundef nonnull %0, ptr noundef nonnull %5, i32 noundef 4, i8 noundef signext %70) #5
  %71 = load i32, ptr %5, align 16
  %72 = load i32, ptr %68, align 4
  %73 = add nsw i32 %72, %71
  %74 = getelementptr inbounds i8, ptr %3, i64 3
  %75 = load i8, ptr %74, align 1
  %76 = icmp slt i8 %75, 1
  br i1 %76, label %clamp_value.exit, label %77

77:                                               ; preds = %4
  %78 = zext nneg i8 %75 to i64
  %79 = add nuw nsw i64 %78, 4294967295
  %80 = and i64 %79, 4294967295
  %81 = shl nuw i64 1, %80
  %82 = add nsw i64 %81, -1
  %83 = sub nsw i64 0, %81
  %84 = sext i32 %73 to i64
  %85 = icmp slt i64 %84, %83
  %86 = call i64 @llvm.smin.i64(i64 %84, i64 %82)
  %87 = select i1 %85, i64 %83, i64 %86
  %88 = trunc i64 %87 to i32
  br label %clamp_value.exit

clamp_value.exit:                                 ; preds = %4, %77
  %.0.i = phi i32 [ %88, %77 ], [ %73, %4 ]
  store i32 %.0.i, ptr %1, align 4
  %89 = load i32, ptr %43, align 4
  %90 = load i32, ptr %59, align 8
  %91 = add nsw i32 %90, %89
  %92 = load i8, ptr %74, align 1
  %93 = icmp slt i8 %92, 1
  br i1 %93, label %clamp_value.exit69, label %94

94:                                               ; preds = %clamp_value.exit
  %95 = zext nneg i8 %92 to i64
  %96 = add nuw nsw i64 %95, 4294967295
  %97 = and i64 %96, 4294967295
  %98 = shl nuw i64 1, %97
  %99 = add nsw i64 %98, -1
  %100 = sub nsw i64 0, %98
  %101 = sext i32 %91 to i64
  %102 = icmp slt i64 %101, %100
  %103 = call i64 @llvm.smin.i64(i64 %101, i64 %99)
  %104 = select i1 %102, i64 %100, i64 %103
  %105 = trunc i64 %104 to i32
  br label %clamp_value.exit69

clamp_value.exit69:                               ; preds = %clamp_value.exit, %94
  %.0.i68 = phi i32 [ %105, %94 ], [ %91, %clamp_value.exit ]
  store i32 %.0.i68, ptr %13, align 4
  %106 = sub nsw i32 %89, %90
  %107 = load i8, ptr %74, align 1
  %108 = icmp slt i8 %107, 1
  br i1 %108, label %clamp_value.exit71, label %109

109:                                              ; preds = %clamp_value.exit69
  %110 = zext nneg i8 %107 to i64
  %111 = add nuw nsw i64 %110, 4294967295
  %112 = and i64 %111, 4294967295
  %113 = shl nuw i64 1, %112
  %114 = add nsw i64 %113, -1
  %115 = sub nsw i64 0, %113
  %116 = sext i32 %106 to i64
  %117 = icmp slt i64 %116, %115
  %118 = call i64 @llvm.smin.i64(i64 %116, i64 %114)
  %119 = select i1 %117, i64 %115, i64 %118
  %120 = trunc i64 %119 to i32
  br label %clamp_value.exit71

clamp_value.exit71:                               ; preds = %clamp_value.exit69, %109
  %.0.i70 = phi i32 [ %120, %109 ], [ %106, %clamp_value.exit69 ]
  store i32 %.0.i70, ptr %16, align 4
  %121 = sub nsw i32 %71, %72
  %122 = load i8, ptr %74, align 1
  %123 = icmp slt i8 %122, 1
  br i1 %123, label %clamp_value.exit73, label %124

124:                                              ; preds = %clamp_value.exit71
  %125 = zext nneg i8 %122 to i64
  %126 = add nuw nsw i64 %125, 4294967295
  %127 = and i64 %126, 4294967295
  %128 = shl nuw i64 1, %127
  %129 = add nsw i64 %128, -1
  %130 = sub nsw i64 0, %128
  %131 = sext i32 %121 to i64
  %132 = icmp slt i64 %131, %130
  %133 = call i64 @llvm.smin.i64(i64 %131, i64 %129)
  %134 = select i1 %132, i64 %130, i64 %133
  %135 = trunc i64 %134 to i32
  br label %clamp_value.exit73

clamp_value.exit73:                               ; preds = %clamp_value.exit71, %124
  %.0.i72 = phi i32 [ %135, %124 ], [ %121, %clamp_value.exit71 ]
  store i32 %.0.i72, ptr %19, align 4
  ret void
}